; Function Attrs: mustprogress uwtable
define hidden void @_ZNK4cvc58internal20FloatingPointLiteral4multERKNS0_12RoundingModeERKS1_(ptr dead_on_unwind noalias writable sret(%"class.cvc5::internal::FloatingPointLiteral") align 8 %0, ptr noundef nonnull align 8 dereferenceable(64) %1, ptr noundef nonnull align 4 dereferenceable(4) %2, ptr noundef nonnull align 8 dereferenceable(64) %3) local_unnamed_addr #4 align 2 personality ptr @__gxx_personality_v0 {
  %5 = alloca %"class.symfpu::unpackedFloat", align 8
  %6 = getelementptr inbounds nuw i8, ptr %1, i64 8
  %7 = getelementptr inbounds nuw i8, ptr %3, i64 8
  call void @_ZN6symfpu8multiplyIN4cvc58internal13symfpuLiteral6traitsEEENS_13unpackedFloatIT_EERKNS6_3fptERKNS6_2rmERKS7_SF_(ptr dead_on_unwind nonnull writable sret(%"class.symfpu::unpackedFloat") align 8 %5, ptr noundef nonnull align 4 dereferenceable(8) %1, ptr noundef nonnull align 4 dereferenceable(4) %2, ptr noundef nonnull align 8 dereferenceable(56) %6, ptr noundef nonnull align 8 dereferenceable(56) %7)
  invoke void @_ZN4cvc58internal17FloatingPointSizeC1ERKS1_(ptr noundef nonnull align 8 dereferenceable(64) %0, ptr noundef nonnull align 4 dereferenceable(8) %1)
          to label %.noexc unwind label %40

.noexc:                                           ; preds = %4
  %8 = getelementptr inbounds nuw i8, ptr %0, i64 8
  %9 = load i8, ptr %5, align 8, !tbaa !15, !range !21, !noundef !22
  store i8 %9, ptr %8, align 8, !tbaa !15
  %10 = getelementptr inbounds nuw i8, ptr %0, i64 9
  %11 = getelementptr inbounds nuw i8, ptr %5, i64 1
  %12 = load i8, ptr %11, align 1, !tbaa !19, !range !21, !noundef !22
  store i8 %12, ptr %10, align 1, !tbaa !19
  %13 = getelementptr inbounds nuw i8, ptr %0, i64 10
  %14 = getelementptr inbounds nuw i8, ptr %5, i64 2
  %15 = load i8, ptr %14, align 2, !tbaa !20, !range !21, !noundef !22
  store i8 %15, ptr %13, align 2, !tbaa !20
  %16 = getelementptr inbounds nuw i8, ptr %0, i64 11
  %17 = getelementptr inbounds nuw i8, ptr %5, i64 3
  %18 = load i8, ptr %17, align 1, !tbaa !23, !range !21, !noundef !22
  store i8 %18, ptr %16, align 1, !tbaa !23
  %19 = getelementptr inbounds nuw i8, ptr %0, i64 16
  %20 = getelementptr inbounds nuw i8, ptr %5, i64 8
  %21 = load i32, ptr %20, align 8, !tbaa !9
  store i32 %21, ptr %19, align 8, !tbaa !9
  %22 = getelementptr inbounds nuw i8, ptr %0, i64 24
  %23 = getelementptr inbounds nuw i8, ptr %5, i64 16
  invoke void @__gmpz_init_set(ptr noundef nonnull align 8 dereferenceable(16) %22, ptr noundef nonnull align 8 dereferenceable(16) %23)
          to label %.noexc4 unwind label %40

.noexc4:                                          ; preds = %.noexc
  %24 = getelementptr inbounds nuw i8, ptr %0, i64 40
  %25 = getelementptr inbounds nuw i8, ptr %5, i64 32
  %26 = load i32, ptr %25, align 8, !tbaa !9
  store i32 %26, ptr %24, align 8, !tbaa !9
  %27 = getelementptr inbounds nuw i8, ptr %0, i64 48
  %28 = getelementptr inbounds nuw i8, ptr %5, i64 40
  invoke void @__gmpz_init_set(ptr noundef nonnull align 8 dereferenceable(16) %27, ptr noundef nonnull align 8 dereferenceable(16) %28)
          to label %_ZN4cvc58internal20FloatingPointLiteralC2ERKNS0_17FloatingPointSizeEN6symfpu13unpackedFloatINS0_13symfpuLiteral6traitsEEE.exit unwind label %29

29:                                               ; preds = %.noexc4
  %30 = landingpad { ptr, i32 }
          cleanup
  invoke void @__gmpz_clear(ptr noundef nonnull align 8 dereferenceable(16) %22)
          to label %.body unwind label %31

31:                                               ; preds = %29
  %32 = landingpad { ptr, i32 }
          catch ptr null
  %33 = extractvalue { ptr, i32 } %32, 0
  call void @__clang_call_terminate(ptr %33) #17
  unreachable

_ZN4cvc58internal20FloatingPointLiteralC2ERKNS0_17FloatingPointSizeEN6symfpu13unpackedFloatINS0_13symfpuLiteral6traitsEEE.exit: ; preds = %.noexc4
  invoke void @__gmpz_clear(ptr noundef nonnull align 8 dereferenceable(16) %28)
          to label %_ZN4cvc58internal9BitVectorD2Ev.exit.i unwind label %34

34:                                               ; preds = %_ZN4cvc58internal20FloatingPointLiteralC2ERKNS0_17FloatingPointSizeEN6symfpu13unpackedFloatINS0_13symfpuLiteral6traitsEEE.exit
  %35 = landingpad { ptr, i32 }
          catch ptr null
  %36 = extractvalue { ptr, i32 } %35, 0
  call void @__clang_call_terminate(ptr %36) #17
  unreachable

_ZN4cvc58internal9BitVectorD2Ev.exit.i:           ; preds = %_ZN4cvc58internal20FloatingPointLiteralC2ERKNS0_17FloatingPointSizeEN6symfpu13unpackedFloatINS0_13symfpuLiteral6traitsEEE.exit
  invoke void @__gmpz_clear(ptr noundef nonnull align 8 dereferenceable(16) %23)
          to label %_ZN6symfpu13unpackedFloatIN4cvc58internal13symfpuLiteral6traitsEED2Ev.exit unwind label %37

37:                                               ; preds = %_ZN4cvc58internal9BitVectorD2Ev.exit.i
  %38 = landingpad { ptr, i32 }
          catch ptr null
  %39 = extractvalue { ptr, i32 } %38, 0
  call void @__clang_call_terminate(ptr %39) #17
  unreachable

_ZN6symfpu13unpackedFloatIN4cvc58internal13symfpuLiteral6traitsEED2Ev.exit: ; preds = %_ZN4cvc58internal9BitVectorD2Ev.exit.i
  ret void

40:                                               ; preds = %.noexc, %4
  %41 = landingpad { ptr, i32 }
          cleanup
  br label %.body

.body:                                            ; preds = %29, %40
  %eh.lpad-body = phi { ptr, i32 } [ %41, %40 ], [ %30, %29 ]
  call void @_ZN6symfpu13unpackedFloatIN4cvc58internal13symfpuLiteral6traitsEED2Ev(ptr noundef nonnull align 8 dereferenceable(56) %5) #16
  resume { ptr, i32 } %eh.lpad-body
}